; Function Attrs: mustprogress nofree norecurse nosync nounwind willreturn memory(read, inaccessiblemem: none) uwtable
define noundef zeroext i1 @_ZNK32pxrInternal_v0_24__pxrReserved__7SdfPath25IsRelationalAttributePathEv(ptr nocapture noundef nonnull readonly align 4 dereferenceable(8) %0) local_unnamed_addr #8 align 2 personality ptr @__gxx_personality_v0 {
  %2 = getelementptr inbounds nuw i8, ptr %0, i64 4
  %3 = load i32, ptr %2, align 4
  %4 = and i32 %3, 255
  %5 = zext nneg i32 %4 to i64
  %6 = getelementptr inbounds [257 x ptr], ptr @_ZN32pxrInternal_v0_24__pxrReserved__8Sdf_PoolINS_15Sdf_PathPropTagELj24ELj8ELj16384EE13_regionStartsE, i64 0, i64 %5
  %7 = load ptr, ptr %6, align 8
  %.not = icmp eq ptr %7, null
  br i1 %.not, label %16, label %8

8:                                                ; preds = %1
  %9 = lshr i32 %3, 8
  %10 = mul nuw nsw i32 %9, 24
  %11 = zext nneg i32 %10 to i64
  %12 = getelementptr inbounds i8, ptr %7, i64 %11
  %13 = getelementptr inbounds nuw i8, ptr %12, i64 14
  %14 = load i8, ptr %13, align 2
  %15 = icmp eq i8 %14, 6
  br label %16

16:                                               ; preds = %1, %8
  %.0 = phi i1 [ %15, %8 ], [ false, %1 ]
  ret i1 %.0
}